target datalayout = "e-m:e-p270:32:32-p271:32:32-p272:64:64-i64:64-i128:128-f80:128-n8:16:32:64-S128"
target triple = "x86_64-pc-linux-gnu"

%struct._GtkDarktableGradientSlider = type { %struct._GtkDrawingArea, ptr, i32, i32, i32, [10 x double], [10 x double], [10 x i32], double, double, [3 x double], i32, i32, i32, i32, i32, i32, i32, i32, i32, ptr }
%struct._GtkDrawingArea = type { %struct._GtkWidget, ptr }
%struct._GtkWidget = type { %struct._GObject, ptr }
%struct._GObject = type { %struct._GTypeInstance, i32, ptr }
%struct._GTypeInstance = type { ptr }

@.str.1 = private unnamed_addr constant [16 x i8] c"gslider != NULL\00", align 1
@__func__.dtgtk_gradient_slider_multivalue_set_marker = private unnamed_addr constant [44 x i8] c"dtgtk_gradient_slider_multivalue_set_marker\00", align 1

; Function Attrs: nounwind uwtable
define void @dtgtk_gradient_slider_multivalue_set_marker(ptr noundef %0, i32 noundef %1, i32 noundef %2) #0 {
  %4 = alloca ptr, align 8
  %5 = alloca i32, align 4
  %6 = alloca i32, align 4
  %7 = alloca i32, align 4
  %8 = alloca i32, align 4
  store ptr %0, ptr %4, align 8, !tbaa !24
  store i32 %1, ptr %5, align 4, !tbaa !13
  store i32 %2, ptr %6, align 4, !tbaa !13
  br label %9

9:                                                ; preds = %3
  call void @llvm.lifetime.start.p0(i64 4, ptr %7) #11
  %10 = load ptr, ptr %4, align 8, !tbaa !24
  %11 = icmp ne ptr %10, null
  br i1 %11, label %12, label %13

12:                                               ; preds = %9
  store i32 1, ptr %7, align 4, !tbaa !13
  br label %14

13:                                               ; preds = %9
  store i32 0, ptr %7, align 4, !tbaa !13
  br label %14

14:                                               ; preds = %13, %12
  %15 = load i32, ptr %7, align 4, !tbaa !13
  store i32 %15, ptr %8, align 4, !tbaa !13
  call void @llvm.lifetime.end.p0(i64 4, ptr %7) #11
  %16 = load i32, ptr %8, align 4, !tbaa !13
  %17 = sext i32 %16 to i64
  %18 = call i64 @llvm.expect.i64(i64 %17, i64 1)
  %19 = icmp ne i64 %18, 0
  br i1 %19, label %20, label %21

20:                                               ; preds = %14
  br label %22

21:                                               ; preds = %14
  call void @g_return_if_fail_warning(ptr noundef null, ptr noundef @__func__.dtgtk_gradient_slider_multivalue_set_marker, ptr noundef @.str.1)
  br label %33

22:                                               ; preds = %20
  br label %23

23:                                               ; preds = %22
  %24 = load i32, ptr %5, align 4, !tbaa !13
  %25 = load ptr, ptr %4, align 8, !tbaa !24
  %26 = getelementptr inbounds nuw %struct._GtkDarktableGradientSlider, ptr %25, i32 0, i32 7
  %27 = load i32, ptr %6, align 4, !tbaa !13
  %28 = sext i32 %27 to i64
  %29 = getelementptr inbounds [10 x i32], ptr %26, i64 0, i64 %28
  store i32 %24, ptr %29, align 4, !tbaa !13
  %30 = load ptr, ptr %4, align 8, !tbaa !24
  %31 = call i64 @gtk_widget_get_type() #12
  %32 = call ptr @g_type_check_instance_cast(ptr noundef %30, i64 noundef %31)
  call void @gtk_widget_queue_draw(ptr noundef %32)
  br label %33

33:                                               ; preds = %23, %21
  ret void
}