; Function Attrs: nounwind uwtable
define void @dtgtk_gradient_slider_multivalue_set_marker(ptr noundef %0, i32 noundef %1, i32 noundef %2) local_unnamed_addr #0 {
  %.not = icmp eq ptr %0, null
  br i1 %.not, label %4, label %5, !prof !45

4:                                                ; preds = %3
  tail call void @g_return_if_fail_warning(ptr noundef null, ptr noundef nonnull @__func__.dtgtk_gradient_slider_multivalue_set_marker, ptr noundef nonnull @.str.1) #14
  br label %11

5:                                                ; preds = %3
  %6 = getelementptr inbounds nuw i8, ptr %0, i64 224
  %7 = sext i32 %2 to i64
  %8 = getelementptr inbounds [10 x i32], ptr %6, i64 0, i64 %7
  store i32 %1, ptr %8, align 4, !tbaa !44
  %9 = tail call i64 @gtk_widget_get_type() #15
  %10 = tail call ptr @g_type_check_instance_cast(ptr noundef nonnull %0, i64 noundef %9) #14
  tail call void @gtk_widget_queue_draw(ptr noundef %10) #14
  br label %11

11:                                               ; preds = %5, %4
  ret void
}